target datalayout = "e-m:e-p270:32:32-p271:32:32-p272:64:64-i64:64-i128:128-f80:128-n8:16:32:64-S128"
target triple = "x86_64-pc-linux-gnu"

%"struct.std::atomic" = type { %"struct.std::__atomic_base" }
%"struct.std::__atomic_base" = type { i8 }
%"class.std::function" = type { %"class.std::_Function_base", ptr }
%"class.std::_Function_base" = type { %"union.std::_Any_data", ptr }
%"union.std::_Any_data" = type { %"union.std::_Nocopy_types" }
%"union.std::_Nocopy_types" = type { { i64, i64 } }
%"class.std::__cxx11::basic_string" = type { %"struct.std::__cxx11::basic_string<char>::_Alloc_hider", i64, %union.anon }
%"struct.std::__cxx11::basic_string<char>::_Alloc_hider" = type { ptr }
%union.anon = type { i64, [8 x i8] }
%"class.std::allocator" = type { i8 }

@_ZTIN3nix8SysErrorE = linkonce_odr constant { ptr, ptr, ptr } { ptr getelementptr inbounds (ptr, ptr @_ZTVN10__cxxabiv120__si_class_type_infoE, i64 2), ptr @_ZTSN3nix8SysErrorE, ptr @_ZTIN3nix11SystemErrorE }, comdat, align 8
@.str.3 = private unnamed_addr constant [18 x i8] c"reading from file\00", align 1
@.str.4 = private unnamed_addr constant [23 x i8] c"unexpected end-of-file\00", align 1
@_ZTIN3nix9EndOfFileE = linkonce_odr constant { ptr, ptr, ptr } { ptr getelementptr inbounds (ptr, ptr @_ZTVN10__cxxabiv120__si_class_type_infoE, i64 2), ptr @_ZTSN3nix9EndOfFileE, ptr @_ZTIN3nix5ErrorE }, comdat, align 8
@_ZN3nix14_isInterruptedE = external global %"struct.std::atomic", align 1
@_ZN3nix14interruptCheckE = external thread_local global %"class.std::function", align 8

; Function Attrs: mustprogress nounwind uwtable
define linkonce_odr noundef zeroext i1 @_ZNKSt14_Function_base8_M_emptyEv(ptr noundef nonnull align 8 dereferenceable(24) %0) #2 comdat align 2 {
  %2 = alloca ptr, align 8
  store ptr %0, ptr %2, align 8
  %3 = load ptr, ptr %2, align 8
  %4 = getelementptr inbounds %"class.std::_Function_base", ptr %3, i32 0, i32 1
  %5 = load ptr, ptr %4, align 8
  %6 = icmp ne ptr %5, null
  %7 = xor i1 %6, true
  ret i1 %7
}

; Function Attrs: noreturn nounwind uwtable
define linkonce_odr hidden void @__clang_call_terminate(ptr noundef %0) #7 comdat {
  %2 = call ptr @__cxa_begin_catch(ptr %0) #1
  call void @_ZSt9terminatev() #21
  unreachable
}

; Function Attrs: mustprogress nounwind uwtable
define linkonce_odr noundef i32 @_ZStanSt12memory_orderSt23__memory_order_modifier(i32 noundef %0, i32 noundef %1) #2 comdat {
  %3 = alloca i32, align 4
  %4 = alloca i32, align 4
  store i32 %0, ptr %3, align 4
  store i32 %1, ptr %4, align 4
  %5 = load i32, ptr %3, align 4
  %6 = load i32, ptr %4, align 4
  %7 = and i32 %5, %6
  ret i32 %7
}

; Function Attrs: mustprogress uwtable
define linkonce_odr noundef zeroext i1 @_ZNKSt8functionIFbvEEclEv(ptr noundef nonnull align 8 dereferenceable(32) %0) #3 comdat align 2 {
  %2 = alloca ptr, align 8
  store ptr %0, ptr %2, align 8
  %3 = load ptr, ptr %2, align 8
  %4 = call noundef zeroext i1 @_ZNKSt14_Function_base8_M_emptyEv(ptr noundef nonnull align 8 dereferenceable(24) %3)
  br i1 %4, label %5, label %6

5:                                                ; preds = %1
  call void @_ZSt25__throw_bad_function_callv() #19
  unreachable

6:                                                ; preds = %1
  %7 = getelementptr inbounds %"class.std::function", ptr %3, i32 0, i32 1
  %8 = load ptr, ptr %7, align 8
  %9 = getelementptr inbounds %"class.std::_Function_base", ptr %3, i32 0, i32 0
  %10 = call noundef zeroext i1 %8(ptr noundef nonnull align 8 dereferenceable(16) %9)
  ret i1 %10
}

; Function Attrs: mustprogress nounwind uwtable
define linkonce_odr noundef zeroext i1 @_ZNKSt8functionIFbvEEcvbEv(ptr noundef nonnull align 8 dereferenceable(32) %0) #2 comdat align 2 personality ptr @__gxx_personality_v0 {
  %2 = alloca ptr, align 8
  store ptr %0, ptr %2, align 8
  %3 = load ptr, ptr %2, align 8
  %4 = invoke noundef zeroext i1 @_ZNKSt14_Function_base8_M_emptyEv(ptr noundef nonnull align 8 dereferenceable(24) %3)
          to label %5 unwind label %7

5:                                                ; preds = %1
  %6 = xor i1 %4, true
  ret i1 %6

7:                                                ; preds = %1
  %8 = landingpad { ptr, i32 }
          catch ptr null
  %9 = extractvalue { ptr, i32 } %8, 0
  call void @__clang_call_terminate(ptr %9) #21
  unreachable
}

; Function Attrs: uwtable
define linkonce_odr hidden noundef ptr @_ZTWN3nix14interruptCheckE() #14 comdat {
  br i1 icmp ne (ptr @_ZTHN3nix14interruptCheckE, ptr null), label %1, label %2

1:                                                ; preds = %0
  call void @_ZTHN3nix14interruptCheckE()
  br label %2

2:                                                ; preds = %1, %0
  %3 = call align 8 ptr @llvm.threadlocal.address.p0(ptr align 8 @_ZN3nix14interruptCheckE)
  ret ptr %3
}

; Function Attrs: mustprogress nounwind uwtable
define linkonce_odr noundef zeroext i1 @_ZNKSt6atomicIbEcvbEv(ptr noundef nonnull align 1 dereferenceable(1) %0) #2 comdat align 2 personality ptr @__gxx_personality_v0 {
  %2 = alloca ptr, align 8
  %3 = alloca i32, align 4
  %4 = alloca i32, align 4
  %5 = alloca i8, align 1
  %6 = alloca ptr, align 8
  store ptr %0, ptr %6, align 8
  %7 = load ptr, ptr %6, align 8
  %8 = getelementptr inbounds %"struct.std::atomic", ptr %7, i32 0, i32 0
  store ptr %8, ptr %2, align 8
  store i32 5, ptr %3, align 4
  %9 = load ptr, ptr %2, align 8
  %10 = load i32, ptr %3, align 4
  %11 = invoke noundef i32 @_ZStanSt12memory_orderSt23__memory_order_modifier(i32 noundef %10, i32 noundef 65535)
          to label %12 unwind label %20

12:                                               ; preds = %1
  store i32 %11, ptr %4, align 4
  %13 = load i32, ptr %3, align 4
  switch i32 %13, label %14 [
    i32 1, label %16
    i32 2, label %16
    i32 5, label %18
  ]

14:                                               ; preds = %12
  %15 = load atomic i8, ptr %9 monotonic, align 1
  store i8 %15, ptr %5, align 1
  br label %23

16:                                               ; preds = %12, %12
  %17 = load atomic i8, ptr %9 acquire, align 1
  store i8 %17, ptr %5, align 1
  br label %23

18:                                               ; preds = %12
  %19 = load atomic i8, ptr %9 seq_cst, align 1
  store i8 %19, ptr %5, align 1
  br label %23

20:                                               ; preds = %1
  %21 = landingpad { ptr, i32 }
          catch ptr null
  %22 = extractvalue { ptr, i32 } %21, 0
  call void @__clang_call_terminate(ptr %22) #21
  unreachable

23:                                               ; preds = %18, %16, %14
  %24 = load i8, ptr %5, align 1
  %25 = trunc i8 %24 to i1
  ret i1 %25
}

; Function Attrs: mustprogress uwtable
define linkonce_odr void @_ZN3nix14checkInterruptEv() #3 comdat {
  %1 = call noundef zeroext i1 @_ZNKSt6atomicIbEcvbEv(ptr noundef nonnull align 1 dereferenceable(1) @_ZN3nix14_isInterruptedE) #1
  br i1 %1, label %8, label %2

2:                                                ; preds = %0
  %3 = call ptr @_ZTWN3nix14interruptCheckE()
  %4 = call noundef zeroext i1 @_ZNKSt8functionIFbvEEcvbEv(ptr noundef nonnull align 8 dereferenceable(32) %3) #1
  br i1 %4, label %5, label %9

5:                                                ; preds = %2
  %6 = call ptr @_ZTWN3nix14interruptCheckE()
  %7 = call noundef zeroext i1 @_ZNKSt8functionIFbvEEclEv(ptr noundef nonnull align 8 dereferenceable(32) %6)
  br i1 %7, label %8, label %9

8:                                                ; preds = %5, %0
  call void @_ZN3nix12_interruptedEv()
  br label %9

9:                                                ; preds = %8, %5, %2
  ret void
}

; Function Attrs: mustprogress uwtable
define void @_ZN3nix8readFullEiPcm(i32 noundef %0, ptr noundef %1, i64 noundef %2) #3 personality ptr @__gxx_personality_v0 {
  %4 = alloca i32, align 4
  %5 = alloca ptr, align 8
  %6 = alloca i64, align 8
  %7 = alloca i64, align 8
  %8 = alloca ptr, align 8
  %9 = alloca i32, align 4
  %10 = alloca %"class.std::__cxx11::basic_string", align 8
  %11 = alloca %"class.std::allocator", align 1
  %12 = alloca i1, align 1
  store i32 %0, ptr %4, align 4
  store ptr %1, ptr %5, align 8
  store i64 %2, ptr %6, align 8
  br label %13

13:                                               ; preds = %54, %27, %3
  %14 = load i64, ptr %6, align 8
  %15 = icmp ne i64 %14, 0
  br i1 %15, label %16, label %61

16:                                               ; preds = %13
  call void @_ZN3nix14checkInterruptEv()
  %17 = load i32, ptr %4, align 4
  %18 = load ptr, ptr %5, align 8
  %19 = load i64, ptr %6, align 8
  %20 = call i64 @read(i32 noundef %17, ptr noundef %18, i64 noundef %19)
  store i64 %20, ptr %7, align 8
  %21 = load i64, ptr %7, align 8
  %22 = icmp eq i64 %21, -1
  br i1 %22, label %23, label %35

23:                                               ; preds = %16
  %24 = call ptr @__errno_location() #20
  %25 = load i32, ptr %24, align 4
  %26 = icmp eq i32 %25, 4
  br i1 %26, label %27, label %28

27:                                               ; preds = %23
  br label %13, !llvm.loop !4

28:                                               ; preds = %23
  %29 = call ptr @__cxa_allocate_exception(i64 384) #1
  invoke void @_ZN3nix8SysErrorC2IJA18_cEEEDpRKT_(ptr noundef nonnull align 8 dereferenceable(380) %29, ptr noundef nonnull align 1 dereferenceable(18) @.str.3)
          to label %30 unwind label %31

30:                                               ; preds = %28
  call void @__cxa_throw(ptr %29, ptr @_ZTIN3nix8SysErrorE, ptr @_ZN3nix8SysErrorD2Ev) #19
  unreachable

31:                                               ; preds = %28
  %32 = landingpad { ptr, i32 }
          cleanup
  %33 = extractvalue { ptr, i32 } %32, 0
  store ptr %33, ptr %8, align 8
  %34 = extractvalue { ptr, i32 } %32, 1
  store i32 %34, ptr %9, align 4
  call void @__cxa_free_exception(ptr %29) #1
  br label %62

35:                                               ; preds = %16
  %36 = load i64, ptr %7, align 8
  %37 = icmp eq i64 %36, 0
  br i1 %37, label %38, label %54

38:                                               ; preds = %35
  store i1 true, ptr %12, align 1
  %39 = call ptr @__cxa_allocate_exception(i64 376) #1
  call void @_ZNSaIcEC1Ev(ptr noundef nonnull align 1 dereferenceable(1) %11) #1
  invoke void @_ZNSt7__cxx1112basic_stringIcSt11char_traitsIcESaIcEEC2IS3_EEPKcRKS3_(ptr noundef nonnull align 8 dereferenceable(32) %10, ptr noundef @.str.4, ptr noundef nonnull align 1 dereferenceable(1) %11)
          to label %40 unwind label %42

40:                                               ; preds = %38
  invoke void @_ZN3nix9EndOfFileCI2NS_9BaseErrorEIJEEERKNSt7__cxx1112basic_stringIcSt11char_traitsIcESaIcEEEDpRKT_(ptr noundef nonnull align 8 dereferenceable(376) %39, ptr noundef nonnull align 8 dereferenceable(32) %10)
          to label %41 unwind label %46

41:                                               ; preds = %40
  store i1 false, ptr %12, align 1
  invoke void @__cxa_throw(ptr %39, ptr @_ZTIN3nix9EndOfFileE, ptr @_ZN3nix9EndOfFileD2Ev) #19
          to label %67 unwind label %46

42:                                               ; preds = %38
  %43 = landingpad { ptr, i32 }
          cleanup
  %44 = extractvalue { ptr, i32 } %43, 0
  store ptr %44, ptr %8, align 8
  %45 = extractvalue { ptr, i32 } %43, 1
  store i32 %45, ptr %9, align 4
  br label %50

46:                                               ; preds = %41, %40
  %47 = landingpad { ptr, i32 }
          cleanup
  %48 = extractvalue { ptr, i32 } %47, 0
  store ptr %48, ptr %8, align 8
  %49 = extractvalue { ptr, i32 } %47, 1
  store i32 %49, ptr %9, align 4
  call void @_ZNSt7__cxx1112basic_stringIcSt11char_traitsIcESaIcEED2Ev(ptr noundef nonnull align 8 dereferenceable(32) %10) #1
  br label %50

50:                                               ; preds = %46, %42
  call void @_ZNSaIcED1Ev(ptr noundef nonnull align 1 dereferenceable(1) %11) #1
  %51 = load i1, ptr %12, align 1
  br i1 %51, label %52, label %53

52:                                               ; preds = %50
  call void @__cxa_free_exception(ptr %39) #1
  br label %53

53:                                               ; preds = %52, %50
  br label %62

54:                                               ; preds = %35
  %55 = load i64, ptr %7, align 8
  %56 = load i64, ptr %6, align 8
  %57 = sub i64 %56, %55
  store i64 %57, ptr %6, align 8
  %58 = load i64, ptr %7, align 8
  %59 = load ptr, ptr %5, align 8
  %60 = getelementptr inbounds i8, ptr %59, i64 %58
  store ptr %60, ptr %5, align 8
  br label %13, !llvm.loop !4

61:                                               ; preds = %13
  ret void

62:                                               ; preds = %53, %31
  %63 = load ptr, ptr %8, align 8
  %64 = load i32, ptr %9, align 4
  %65 = insertvalue { ptr, i32 } poison, ptr %63, 0
  %66 = insertvalue { ptr, i32 } %65, i32 %64, 1
  resume { ptr, i32 } %66

67:                                               ; preds = %41
  unreachable
}