; Function Attrs: uwtable
define void @_ZN3nix8readFullEiPcm(i32 noundef %0, ptr nocapture noundef %1, i64 noundef %2) local_unnamed_addr #5 personality ptr @__gxx_personality_v0 {
  %4 = alloca %"class.std::__cxx11::basic_string", align 8
  %5 = alloca %"class.std::allocator", align 1
  %6 = tail call align 8 ptr @llvm.threadlocal.address.p0(ptr align 8 @_ZN3nix14interruptCheckE)
  %7 = getelementptr inbounds i8, ptr %6, i64 16
  %8 = getelementptr inbounds i8, ptr %6, i64 24
  %.not27 = icmp eq i64 %2, 0
  br i1 %.not27, label %.outer._crit_edge, label %.outer.split

.outer.split:                                     ; preds = %3, %.outer
  %.016.ph29 = phi ptr [ %39, %.outer ], [ %1, %3 ]
  %.017.ph28 = phi i64 [ %38, %.outer ], [ %2, %3 ]
  br label %9

9:                                                ; preds = %.outer.split, %21
  %10 = load atomic i8, ptr @_ZN3nix14_isInterruptedE seq_cst, align 1
  %11 = and i8 %10, 1
  %.not.i = icmp eq i8 %11, 0
  br i1 %.not.i, label %12, label %19

12:                                               ; preds = %9
  br i1 icmp ne (ptr @_ZTHN3nix14interruptCheckE, ptr null), label %13, label %_ZTWN3nix14interruptCheckE.exit.i

13:                                               ; preds = %12
  tail call void @_ZTHN3nix14interruptCheckE()
  br label %_ZTWN3nix14interruptCheckE.exit.i

_ZTWN3nix14interruptCheckE.exit.i:                ; preds = %13, %12
  %14 = load ptr, ptr %7, align 8
  %.not.i.i.not.i = icmp eq ptr %14, null
  br i1 %.not.i.i.not.i, label %_ZN3nix14checkInterruptEv.exit, label %15

15:                                               ; preds = %_ZTWN3nix14interruptCheckE.exit.i
  br i1 icmp ne (ptr @_ZTHN3nix14interruptCheckE, ptr null), label %_ZTWN3nix14interruptCheckE.exit1.i, label %_ZNKSt8functionIFbvEEclEv.exit.i

_ZTWN3nix14interruptCheckE.exit1.i:               ; preds = %15
  tail call void @_ZTHN3nix14interruptCheckE()
  %.pr.i = load ptr, ptr %7, align 8
  %.not.i.i2.i = icmp eq ptr %.pr.i, null
  br i1 %.not.i.i2.i, label %16, label %_ZNKSt8functionIFbvEEclEv.exit.i

16:                                               ; preds = %_ZTWN3nix14interruptCheckE.exit1.i
  tail call void @_ZSt25__throw_bad_function_callv() #30
  unreachable

_ZNKSt8functionIFbvEEclEv.exit.i:                 ; preds = %_ZTWN3nix14interruptCheckE.exit1.i, %15
  %17 = load ptr, ptr %8, align 8
  %18 = tail call noundef zeroext i1 %17(ptr noundef nonnull align 8 dereferenceable(16) %6)
  br i1 %18, label %19, label %_ZN3nix14checkInterruptEv.exit

19:                                               ; preds = %_ZNKSt8functionIFbvEEclEv.exit.i, %9
  tail call void @_ZN3nix12_interruptedEv()
  br label %_ZN3nix14checkInterruptEv.exit

_ZN3nix14checkInterruptEv.exit:                   ; preds = %_ZTWN3nix14interruptCheckE.exit.i, %_ZNKSt8functionIFbvEEclEv.exit.i, %19
  %20 = tail call i64 @read(i32 noundef %0, ptr noundef %.016.ph29, i64 noundef %.017.ph28)
  switch i64 %20, label %.outer [
    i64 -1, label %21
    i64 0, label %30
  ]

21:                                               ; preds = %_ZN3nix14checkInterruptEv.exit
  %22 = tail call ptr @__errno_location() #31
  %23 = load i32, ptr %22, align 4
  %24 = icmp eq i32 %23, 4
  br i1 %24, label %9, label %25, !llvm.loop !4

25:                                               ; preds = %21
  %26 = tail call ptr @__cxa_allocate_exception(i64 384) #29
  invoke void @_ZN3nix8SysErrorC2IJA18_cEEEDpRKT_(ptr noundef nonnull align 8 dereferenceable(380) %26, ptr noundef nonnull align 1 dereferenceable(18) @.str.3)
          to label %27 unwind label %28

27:                                               ; preds = %25
  tail call void @__cxa_throw(ptr nonnull %26, ptr nonnull @_ZTIN3nix8SysErrorE, ptr nonnull @_ZN3nix8SysErrorD2Ev) #30
  unreachable

28:                                               ; preds = %25
  %29 = landingpad { ptr, i32 }
          cleanup
  tail call void @__cxa_free_exception(ptr %26) #29
  br label %40

30:                                               ; preds = %_ZN3nix14checkInterruptEv.exit
  %31 = tail call ptr @__cxa_allocate_exception(i64 376) #29
  call void @_ZNSaIcEC1Ev(ptr noundef nonnull align 1 dereferenceable(1) %5) #29
  invoke void @_ZNSt7__cxx1112basic_stringIcSt11char_traitsIcESaIcEEC2IS3_EEPKcRKS3_(ptr noundef nonnull align 8 dereferenceable(32) %4, ptr noundef nonnull @.str.4, ptr noundef nonnull align 1 dereferenceable(1) %5)
          to label %32 unwind label %.thread

32:                                               ; preds = %30
  invoke void @_ZN3nix9EndOfFileCI2NS_9BaseErrorEIJEEERKNSt7__cxx1112basic_stringIcSt11char_traitsIcESaIcEEEDpRKT_(ptr noundef nonnull align 8 dereferenceable(376) %31, ptr noundef nonnull align 8 dereferenceable(32) %4)
          to label %33 unwind label %35

33:                                               ; preds = %32
  invoke void @__cxa_throw(ptr nonnull %31, ptr nonnull @_ZTIN3nix9EndOfFileE, ptr nonnull @_ZN3nix9EndOfFileD2Ev) #30
          to label %41 unwind label %35

.thread:                                          ; preds = %30
  %34 = landingpad { ptr, i32 }
          cleanup
  call void @_ZNSaIcED1Ev(ptr noundef nonnull align 1 dereferenceable(1) %5) #29
  br label %37

35:                                               ; preds = %32, %33
  %.0 = phi i1 [ false, %33 ], [ true, %32 ]
  %36 = landingpad { ptr, i32 }
          cleanup
  call void @_ZNSt7__cxx1112basic_stringIcSt11char_traitsIcESaIcEED2Ev(ptr noundef nonnull align 8 dereferenceable(32) %4) #29
  call void @_ZNSaIcED1Ev(ptr noundef nonnull align 1 dereferenceable(1) %5) #29
  br i1 %.0, label %37, label %40

37:                                               ; preds = %.thread, %35
  %.pn24 = phi { ptr, i32 } [ %34, %.thread ], [ %36, %35 ]
  call void @__cxa_free_exception(ptr %31) #29
  br label %40

.outer:                                           ; preds = %_ZN3nix14checkInterruptEv.exit
  %38 = sub i64 %.017.ph28, %20
  %39 = getelementptr inbounds i8, ptr %.016.ph29, i64 %20
  %.not = icmp eq i64 %38, 0
  br i1 %.not, label %.outer._crit_edge, label %.outer.split, !llvm.loop !4

.outer._crit_edge:                                ; preds = %.outer, %3
  ret void

40:                                               ; preds = %35, %37, %28
  %.pn20 = phi { ptr, i32 } [ %29, %28 ], [ %.pn24, %37 ], [ %36, %35 ]
  resume { ptr, i32 } %.pn20

41:                                               ; preds = %33
  unreachable
}